target datalayout = "e-m:e-p270:32:32-p271:32:32-p272:64:64-i64:64-i128:128-f80:128-n8:16:32:64-S128"
target triple = "x86_64-pc-linux-gnu"

%struct.ImVec2 = type { float, float }
%struct.ImVec4 = type { float, float, float, float }
%struct.ImDrawListSharedData = type { %struct.ImVec2, ptr, float, float, float, float, %struct.ImVec4, i32, %struct.ImVector, [48 x %struct.ImVec2], float, [64 x i8], ptr }
%struct.ImVector = type { i32, i32, ptr }
%struct.ImDrawList = type { %struct.ImVector.0, %struct.ImVector.1, %struct.ImVector.2, i32, i32, ptr, ptr, ptr, %struct.ImVector, %struct.ImDrawCmdHeader, %struct.ImDrawListSplitter, %struct.ImVector.4, %struct.ImVector.5, float, ptr }
%struct.ImVector.0 = type { i32, i32, ptr }
%struct.ImVector.1 = type { i32, i32, ptr }
%struct.ImVector.2 = type { i32, i32, ptr }
%struct.ImDrawCmdHeader = type <{ %struct.ImVec4, ptr, i32, [4 x i8] }>
%struct.ImDrawListSplitter = type { i32, i32, %struct.ImVector.3 }
%struct.ImVector.3 = type { i32, i32, ptr }
%struct.ImVector.4 = type { i32, i32, ptr }
%struct.ImVector.5 = type { i32, i32, ptr }

; Function Attrs: inlinehint mustprogress nounwind uwtable
define internal noundef i32 @_ZL7ImClampIiET_S0_S0_S0_(i32 noundef %0, i32 noundef %1, i32 noundef %2) #7 {
  %4 = alloca i32, align 4
  %5 = alloca i32, align 4
  %6 = alloca i32, align 4
  store i32 %0, ptr %4, align 4, !tbaa !21
  store i32 %1, ptr %5, align 4, !tbaa !21
  store i32 %2, ptr %6, align 4, !tbaa !21
  %7 = load i32, ptr %4, align 4, !tbaa !21
  %8 = load i32, ptr %5, align 4, !tbaa !21
  %9 = icmp slt i32 %7, %8
  br i1 %9, label %10, label %12

10:                                               ; preds = %3
  %11 = load i32, ptr %5, align 4, !tbaa !21
  br label %22

12:                                               ; preds = %3
  %13 = load i32, ptr %4, align 4, !tbaa !21
  %14 = load i32, ptr %6, align 4, !tbaa !21
  %15 = icmp sgt i32 %13, %14
  br i1 %15, label %16, label %18

16:                                               ; preds = %12
  %17 = load i32, ptr %6, align 4, !tbaa !21
  br label %20

18:                                               ; preds = %12
  %19 = load i32, ptr %4, align 4, !tbaa !21
  br label %20

20:                                               ; preds = %18, %16
  %21 = phi i32 [ %17, %16 ], [ %19, %18 ]
  br label %22

22:                                               ; preds = %20, %10
  %23 = phi i32 [ %11, %10 ], [ %21, %20 ]
  ret i32 %23
}

; Function Attrs: inlinehint mustprogress nounwind uwtable
define internal noundef float @_ZL5ImMinIfET_S0_S0_(float noundef %0, float noundef %1) #7 {
  %3 = alloca float, align 4
  %4 = alloca float, align 4
  store float %0, ptr %3, align 4, !tbaa !12
  store float %1, ptr %4, align 4, !tbaa !12
  %5 = load float, ptr %3, align 4, !tbaa !12
  %6 = load float, ptr %4, align 4, !tbaa !12
  %7 = fcmp olt float %5, %6
  br i1 %7, label %8, label %10

8:                                                ; preds = %2
  %9 = load float, ptr %3, align 4, !tbaa !12
  br label %12

10:                                               ; preds = %2
  %11 = load float, ptr %4, align 4, !tbaa !12
  br label %12

12:                                               ; preds = %10, %8
  %13 = phi float [ %9, %8 ], [ %11, %10 ]
  ret float %13
}

; Function Attrs: inlinehint mustprogress uwtable
define linkonce_odr dso_local void @_ZN10ImDrawList10PathStrokeEjif(ptr noundef nonnull align 8 dereferenceable(200) %0, i32 noundef %1, i32 noundef %2, float noundef %3) #5 comdat align 2 {
  %5 = alloca ptr, align 8
  %6 = alloca i32, align 4
  %7 = alloca i32, align 4
  %8 = alloca float, align 4
  store ptr %0, ptr %5, align 8, !tbaa !43
  store i32 %1, ptr %6, align 4, !tbaa !21
  store i32 %2, ptr %7, align 4, !tbaa !21
  store float %3, ptr %8, align 4, !tbaa !12
  %9 = load ptr, ptr %5, align 8
  %10 = getelementptr inbounds nuw %struct.ImDrawList, ptr %9, i32 0, i32 8
  %11 = getelementptr inbounds nuw %struct.ImVector, ptr %10, i32 0, i32 2
  %12 = load ptr, ptr %11, align 8, !tbaa !161
  %13 = getelementptr inbounds nuw %struct.ImDrawList, ptr %9, i32 0, i32 8
  %14 = getelementptr inbounds nuw %struct.ImVector, ptr %13, i32 0, i32 0
  %15 = load i32, ptr %14, align 8, !tbaa !160
  %16 = load i32, ptr %6, align 4, !tbaa !21
  %17 = load i32, ptr %7, align 4, !tbaa !21
  %18 = load float, ptr %8, align 4, !tbaa !12
  call void @_ZN10ImDrawList11AddPolylineEPK6ImVec2ijif(ptr noundef nonnull align 8 dereferenceable(200) %9, ptr noundef %12, i32 noundef %15, i32 noundef %16, i32 noundef %17, float noundef %18)
  %19 = getelementptr inbounds nuw %struct.ImDrawList, ptr %9, i32 0, i32 8
  %20 = getelementptr inbounds nuw %struct.ImVector, ptr %19, i32 0, i32 0
  store i32 0, ptr %20, align 8, !tbaa !160
  ret void
}

; Function Attrs: mustprogress uwtable
define dso_local noundef i32 @_ZNK10ImDrawList27_CalcCircleAutoSegmentCountEf(ptr noundef nonnull align 8 dereferenceable(200) %0, float noundef %1) #6 align 2 {
  %3 = alloca i32, align 4
  %4 = alloca ptr, align 8
  %5 = alloca float, align 4
  %6 = alloca i32, align 4
  %7 = alloca i32, align 4
  store ptr %0, ptr %4, align 8, !tbaa !43
  store float %1, ptr %5, align 4, !tbaa !12
  %8 = load ptr, ptr %4, align 8
  call void @llvm.lifetime.start.p0(i64 4, ptr %6) #17
  %9 = load float, ptr %5, align 4, !tbaa !12
  %10 = fadd float %9, 0x3FEFFFFDE0000000
  %11 = fptosi float %10 to i32
  store i32 %11, ptr %6, align 4, !tbaa !21
  %12 = load i32, ptr %6, align 4, !tbaa !21
  %13 = icmp sge i32 %12, 0
  br i1 %13, label %14, label %26

14:                                               ; preds = %2
  %15 = load i32, ptr %6, align 4, !tbaa !21
  %16 = icmp slt i32 %15, 64
  br i1 %16, label %17, label %26

17:                                               ; preds = %14
  %18 = getelementptr inbounds nuw %struct.ImDrawList, ptr %8, i32 0, i32 5
  %19 = load ptr, ptr %18, align 8, !tbaa !60
  %20 = getelementptr inbounds nuw %struct.ImDrawListSharedData, ptr %19, i32 0, i32 11
  %21 = load i32, ptr %6, align 4, !tbaa !21
  %22 = sext i32 %21 to i64
  %23 = getelementptr inbounds [64 x i8], ptr %20, i64 0, i64 %22
  %24 = load i8, ptr %23, align 1, !tbaa !41
  %25 = zext i8 %24 to i32
  store i32 %25, ptr %3, align 4
  store i32 1, ptr %7, align 4
  br label %44

26:                                               ; preds = %14, %2
  %27 = getelementptr inbounds nuw %struct.ImDrawList, ptr %8, i32 0, i32 5
  %28 = load ptr, ptr %27, align 8, !tbaa !60
  %29 = getelementptr inbounds nuw %struct.ImDrawListSharedData, ptr %28, i32 0, i32 5
  %30 = load float, ptr %29, align 4, !tbaa !26
  %31 = load float, ptr %5, align 4, !tbaa !12
  %32 = call noundef float @_ZL5ImMinIfET_S0_S0_(float noundef %30, float noundef %31)
  %33 = load float, ptr %5, align 4, !tbaa !12
  %34 = fdiv float %32, %33
  %35 = fsub float 1.000000e+00, %34
  %36 = call float @acosf(float noundef %35) #17, !tbaa !21
  %37 = fdiv float 0x400921FB60000000, %36
  %38 = call float @llvm.ceil.f32(float %37)
  %39 = fptosi float %38 to i32
  %40 = add nsw i32 %39, 1
  %41 = sdiv i32 %40, 2
  %42 = mul nsw i32 %41, 2
  %43 = call noundef i32 @_ZL7ImClampIiET_S0_S0_S0_(i32 noundef %42, i32 noundef 4, i32 noundef 512)
  store i32 %43, ptr %3, align 4
  store i32 1, ptr %7, align 4
  br label %44

44:                                               ; preds = %26, %17
  call void @llvm.lifetime.end.p0(i64 4, ptr %6) #17
  %45 = load i32, ptr %3, align 4
  ret i32 %45
}

; Function Attrs: inlinehint mustprogress nounwind uwtable
define internal noundef float @_ZL5ImMaxIfET_S0_S0_(float noundef %0, float noundef %1) #7 {
  %3 = alloca float, align 4
  %4 = alloca float, align 4
  store float %0, ptr %3, align 4, !tbaa !12
  store float %1, ptr %4, align 4, !tbaa !12
  %5 = load float, ptr %3, align 4, !tbaa !12
  %6 = load float, ptr %4, align 4, !tbaa !12
  %7 = fcmp oge float %5, %6
  br i1 %7, label %8, label %10

8:                                                ; preds = %2
  %9 = load float, ptr %3, align 4, !tbaa !12
  br label %12

10:                                               ; preds = %2
  %11 = load float, ptr %4, align 4, !tbaa !12
  br label %12

12:                                               ; preds = %10, %8
  %13 = phi float [ %9, %8 ], [ %11, %10 ]
  ret float %13
}

; Function Attrs: mustprogress uwtable
define dso_local void @_ZN10ImDrawList10AddEllipseERK6ImVec2S2_jfif(ptr noundef nonnull align 8 dereferenceable(200) %0, ptr noundef nonnull align 4 dereferenceable(8) %1, ptr noundef nonnull align 4 dereferenceable(8) %2, i32 noundef %3, float noundef %4, i32 noundef %5, float noundef %6) #6 align 2 {
  %8 = alloca ptr, align 8
  %9 = alloca ptr, align 8
  %10 = alloca ptr, align 8
  %11 = alloca i32, align 4
  %12 = alloca float, align 4
  %13 = alloca i32, align 4
  %14 = alloca float, align 4
  %15 = alloca float, align 4
  store ptr %0, ptr %8, align 8, !tbaa !43
  store ptr %1, ptr %9, align 8, !tbaa !33
  store ptr %2, ptr %10, align 8, !tbaa !33
  store i32 %3, ptr %11, align 4, !tbaa !21
  store float %4, ptr %12, align 4, !tbaa !12
  store i32 %5, ptr %13, align 4, !tbaa !21
  store float %6, ptr %14, align 4, !tbaa !12
  %16 = load ptr, ptr %8, align 8
  %17 = load i32, ptr %11, align 4, !tbaa !21
  %18 = and i32 %17, -16777216
  %19 = icmp eq i32 %18, 0
  br i1 %19, label %20, label %21

20:                                               ; preds = %7
  br label %49

21:                                               ; preds = %7
  %22 = load i32, ptr %13, align 4, !tbaa !21
  %23 = icmp sle i32 %22, 0
  br i1 %23, label %24, label %33

24:                                               ; preds = %21
  %25 = load ptr, ptr %10, align 8, !tbaa !33
  %26 = getelementptr inbounds nuw %struct.ImVec2, ptr %25, i32 0, i32 0
  %27 = load float, ptr %26, align 4, !tbaa !34
  %28 = load ptr, ptr %10, align 8, !tbaa !33
  %29 = getelementptr inbounds nuw %struct.ImVec2, ptr %28, i32 0, i32 1
  %30 = load float, ptr %29, align 4, !tbaa !35
  %31 = call noundef float @_ZL5ImMaxIfET_S0_S0_(float noundef %27, float noundef %30)
  %32 = call noundef i32 @_ZNK10ImDrawList27_CalcCircleAutoSegmentCountEf(ptr noundef nonnull align 8 dereferenceable(200) %16, float noundef %31)
  store i32 %32, ptr %13, align 4, !tbaa !21
  br label %33

33:                                               ; preds = %24, %21
  call void @llvm.lifetime.start.p0(i64 4, ptr %15) #17
  %34 = load i32, ptr %13, align 4, !tbaa !21
  %35 = sitofp i32 %34 to float
  %36 = fsub float %35, 1.000000e+00
  %37 = fmul float 0x401921FB60000000, %36
  %38 = load i32, ptr %13, align 4, !tbaa !21
  %39 = sitofp i32 %38 to float
  %40 = fdiv float %37, %39
  store float %40, ptr %15, align 4, !tbaa !12
  %41 = load ptr, ptr %9, align 8, !tbaa !33
  %42 = load ptr, ptr %10, align 8, !tbaa !33
  %43 = load float, ptr %12, align 4, !tbaa !12
  %44 = load float, ptr %15, align 4, !tbaa !12
  %45 = load i32, ptr %13, align 4, !tbaa !21
  %46 = sub nsw i32 %45, 1
  call void @_ZN10ImDrawList19PathEllipticalArcToERK6ImVec2S2_fffi(ptr noundef nonnull align 8 dereferenceable(200) %16, ptr noundef nonnull align 4 dereferenceable(8) %41, ptr noundef nonnull align 4 dereferenceable(8) %42, float noundef %43, float noundef 0.000000e+00, float noundef %44, i32 noundef %46)
  %47 = load i32, ptr %11, align 4, !tbaa !21
  %48 = load float, ptr %14, align 4, !tbaa !12
  call void @_ZN10ImDrawList10PathStrokeEjif(ptr noundef nonnull align 8 dereferenceable(200) %16, i32 noundef %47, i32 noundef 1, float noundef %48)
  call void @llvm.lifetime.end.p0(i64 4, ptr %15) #17
  br label %49

49:                                               ; preds = %33, %20
  ret void
}