; Function Attrs: mustprogress uwtable
define dso_local void @_ZN10ImDrawList10AddEllipseERK6ImVec2S2_jfif(ptr noundef nonnull align 8 captures(none) dereferenceable(200) %0, ptr noundef nonnull readonly align 4 captures(none) dereferenceable(8) %1, ptr noundef nonnull readonly align 4 captures(none) dereferenceable(8) %2, i32 noundef %3, float noundef %4, i32 noundef %5, float noundef %6) local_unnamed_addr #9 align 2 {
  %8 = icmp ult i32 %3, 16777216
  br i1 %8, label %52, label %9

9:                                                ; preds = %7
  %10 = icmp slt i32 %5, 1
  br i1 %10, label %11, label %_ZNK10ImDrawList27_CalcCircleAutoSegmentCountEf.exit

11:                                               ; preds = %9
  %12 = load float, ptr %2, align 4, !tbaa !93
  %13 = getelementptr inbounds nuw i8, ptr %2, i64 4
  %14 = load float, ptr %13, align 4, !tbaa !94
  %15 = fcmp oge float %12, %14
  %16 = select i1 %15, float %12, float %14
  %17 = fadd float %16, 0x3FEFFFFDE0000000
  %18 = fptosi float %17 to i32
  %or.cond.i = icmp ult i32 %18, 64
  %19 = getelementptr inbounds nuw i8, ptr %0, i64 56
  %20 = load ptr, ptr %19, align 8, !tbaa !50
  br i1 %or.cond.i, label %21, label %27

21:                                               ; preds = %11
  %22 = getelementptr inbounds nuw i8, ptr %20, i64 460
  %23 = zext nneg i32 %18 to i64
  %24 = getelementptr inbounds nuw [64 x i8], ptr %22, i64 0, i64 %23
  %25 = load i8, ptr %24, align 1, !tbaa !23
  %26 = zext i8 %25 to i32
  br label %_ZNK10ImDrawList27_CalcCircleAutoSegmentCountEf.exit

27:                                               ; preds = %11
  %28 = getelementptr inbounds nuw i8, ptr %20, i64 28
  %29 = load float, ptr %28, align 4, !tbaa !22
  %30 = fcmp olt float %29, %16
  %31 = select i1 %30, float %29, float %16
  %32 = fdiv float %31, %16
  %33 = fsub float 1.000000e+00, %32
  %34 = tail call float @acosf(float noundef %33) #42, !tbaa !19
  %35 = fdiv float 0x400921FB60000000, %34
  %36 = tail call float @llvm.ceil.f32(float %35)
  %37 = fptosi float %36 to i32
  %38 = add nsw i32 %37, 1
  %39 = sdiv i32 %38, 2
  %40 = shl nsw i32 %39, 1
  %41 = tail call i32 @llvm.smin.i32(i32 range(i32 -2147483646, -2147483648) %40, i32 512)
  %42 = tail call i32 @llvm.smax.i32(i32 %41, i32 4)
  br label %_ZNK10ImDrawList27_CalcCircleAutoSegmentCountEf.exit

_ZNK10ImDrawList27_CalcCircleAutoSegmentCountEf.exit: ; preds = %27, %21, %9
  %.0 = phi i32 [ %5, %9 ], [ %26, %21 ], [ %42, %27 ]
  %43 = uitofp nneg i32 %.0 to float
  %44 = fadd float %43, -1.000000e+00
  %45 = fmul float %44, 0x401921FB60000000
  %46 = fdiv float %45, %43
  %47 = add nsw i32 %.0, -1
  tail call void @_ZN10ImDrawList19PathEllipticalArcToERK6ImVec2S2_fffi(ptr noundef nonnull align 8 dereferenceable(200) %0, ptr noundef nonnull align 4 dereferenceable(8) %1, ptr noundef nonnull align 4 dereferenceable(8) %2, float noundef %4, float noundef 0.000000e+00, float noundef %46, i32 noundef %47)
  %48 = getelementptr inbounds nuw i8, ptr %0, i64 80
  %49 = getelementptr inbounds nuw i8, ptr %0, i64 88
  %50 = load ptr, ptr %49, align 8, !tbaa !125
  %51 = load i32, ptr %48, align 8, !tbaa !124
  tail call void @_ZN10ImDrawList11AddPolylineEPK6ImVec2ijif(ptr noundef nonnull align 8 dereferenceable(200) %0, ptr noundef %50, i32 noundef %51, i32 noundef %3, i32 noundef 1, float noundef %6)
  store i32 0, ptr %48, align 8, !tbaa !124
  br label %52

52:                                               ; preds = %7, %_ZNK10ImDrawList27_CalcCircleAutoSegmentCountEf.exit
  ret void
}